target datalayout = "e-m:e-p270:32:32-p271:32:32-p272:64:64-i64:64-i128:128-f80:128-n8:16:32:64-S128"
target triple = "x86_64-pc-linux-gnu"

%struct.TupleTableSlotOps = type { i64, ptr, ptr, ptr, ptr, ptr, ptr, ptr, ptr, ptr, ptr, ptr, ptr }
%struct.TupleTableSlot = type { i32, i16, i16, ptr, ptr, ptr, ptr, ptr, %struct.ItemPointerData, i32 }
%struct.ItemPointerData = type { %struct.BlockIdData, i16 }
%struct.BlockIdData = type { i16, i16 }
%struct.TupleDescData = type { i32, i32, i32, i32, ptr, [0 x %struct.CompactAttribute] }
%struct.CompactAttribute = type { i32, i16, i8, i8, i8, i8, i8, i8, i8 }

; Function Attrs: inlinehint nounwind uwtable
define internal ptr @ExecClearTuple(ptr noundef %0) #4 {
  %2 = alloca ptr, align 8
  store ptr %0, ptr %2, align 8
  %3 = load ptr, ptr %2, align 8
  %4 = getelementptr inbounds nuw %struct.TupleTableSlot, ptr %3, i32 0, i32 3
  %5 = load ptr, ptr %4, align 8
  %6 = getelementptr inbounds nuw %struct.TupleTableSlotOps, ptr %5, i32 0, i32 3
  %7 = load ptr, ptr %6, align 8
  %8 = load ptr, ptr %2, align 8
  call void %7(ptr noundef %8)
  %9 = load ptr, ptr %2, align 8
  ret ptr %9
}

; Function Attrs: nounwind uwtable
define dso_local void @ExecSetSlotDescriptor(ptr noundef %0, ptr noundef %1) #0 {
  %3 = alloca ptr, align 8
  %4 = alloca ptr, align 8
  store ptr %0, ptr %3, align 8
  store ptr %1, ptr %4, align 8
  %5 = load ptr, ptr %3, align 8
  %6 = call ptr @ExecClearTuple(ptr noundef %5)
  %7 = load ptr, ptr %3, align 8
  %8 = getelementptr inbounds nuw %struct.TupleTableSlot, ptr %7, i32 0, i32 4
  %9 = load ptr, ptr %8, align 8
  %10 = icmp ne ptr %9, null
  br i1 %10, label %11, label %25

11:                                               ; preds = %2
  br label %12

12:                                               ; preds = %11
  %13 = load ptr, ptr %3, align 8
  %14 = getelementptr inbounds nuw %struct.TupleTableSlot, ptr %13, i32 0, i32 4
  %15 = load ptr, ptr %14, align 8
  %16 = getelementptr inbounds nuw %struct.TupleDescData, ptr %15, i32 0, i32 3
  %17 = load i32, ptr %16, align 4
  %18 = icmp sge i32 %17, 0
  br i1 %18, label %19, label %23

19:                                               ; preds = %12
  %20 = load ptr, ptr %3, align 8
  %21 = getelementptr inbounds nuw %struct.TupleTableSlot, ptr %20, i32 0, i32 4
  %22 = load ptr, ptr %21, align 8
  call void @DecrTupleDescRefCount(ptr noundef %22)
  br label %23

23:                                               ; preds = %19, %12
  br label %24

24:                                               ; preds = %23
  br label %25

25:                                               ; preds = %24, %2
  %26 = load ptr, ptr %3, align 8
  %27 = getelementptr inbounds nuw %struct.TupleTableSlot, ptr %26, i32 0, i32 5
  %28 = load ptr, ptr %27, align 8
  %29 = icmp ne ptr %28, null
  br i1 %29, label %30, label %34

30:                                               ; preds = %25
  %31 = load ptr, ptr %3, align 8
  %32 = getelementptr inbounds nuw %struct.TupleTableSlot, ptr %31, i32 0, i32 5
  %33 = load ptr, ptr %32, align 8
  call void @pfree(ptr noundef %33)
  br label %34

34:                                               ; preds = %30, %25
  %35 = load ptr, ptr %3, align 8
  %36 = getelementptr inbounds nuw %struct.TupleTableSlot, ptr %35, i32 0, i32 6
  %37 = load ptr, ptr %36, align 8
  %38 = icmp ne ptr %37, null
  br i1 %38, label %39, label %43

39:                                               ; preds = %34
  %40 = load ptr, ptr %3, align 8
  %41 = getelementptr inbounds nuw %struct.TupleTableSlot, ptr %40, i32 0, i32 6
  %42 = load ptr, ptr %41, align 8
  call void @pfree(ptr noundef %42)
  br label %43

43:                                               ; preds = %39, %34
  %44 = load ptr, ptr %4, align 8
  %45 = load ptr, ptr %3, align 8
  %46 = getelementptr inbounds nuw %struct.TupleTableSlot, ptr %45, i32 0, i32 4
  store ptr %44, ptr %46, align 8
  br label %47

47:                                               ; preds = %43
  %48 = load ptr, ptr %4, align 8
  %49 = getelementptr inbounds nuw %struct.TupleDescData, ptr %48, i32 0, i32 3
  %50 = load i32, ptr %49, align 4
  %51 = icmp sge i32 %50, 0
  br i1 %51, label %52, label %54

52:                                               ; preds = %47
  %53 = load ptr, ptr %4, align 8
  call void @IncrTupleDescRefCount(ptr noundef %53)
  br label %54

54:                                               ; preds = %52, %47
  br label %55

55:                                               ; preds = %54
  %56 = load ptr, ptr %3, align 8
  %57 = getelementptr inbounds nuw %struct.TupleTableSlot, ptr %56, i32 0, i32 7
  %58 = load ptr, ptr %57, align 8
  %59 = load ptr, ptr %4, align 8
  %60 = getelementptr inbounds nuw %struct.TupleDescData, ptr %59, i32 0, i32 0
  %61 = load i32, ptr %60, align 8
  %62 = sext i32 %61 to i64
  %63 = mul i64 %62, 8
  %64 = call ptr @MemoryContextAlloc(ptr noundef %58, i64 noundef %63)
  %65 = load ptr, ptr %3, align 8
  %66 = getelementptr inbounds nuw %struct.TupleTableSlot, ptr %65, i32 0, i32 5
  store ptr %64, ptr %66, align 8
  %67 = load ptr, ptr %3, align 8
  %68 = getelementptr inbounds nuw %struct.TupleTableSlot, ptr %67, i32 0, i32 7
  %69 = load ptr, ptr %68, align 8
  %70 = load ptr, ptr %4, align 8
  %71 = getelementptr inbounds nuw %struct.TupleDescData, ptr %70, i32 0, i32 0
  %72 = load i32, ptr %71, align 8
  %73 = sext i32 %72 to i64
  %74 = mul i64 %73, 1
  %75 = call ptr @MemoryContextAlloc(ptr noundef %69, i64 noundef %74)
  %76 = load ptr, ptr %3, align 8
  %77 = getelementptr inbounds nuw %struct.TupleTableSlot, ptr %76, i32 0, i32 6
  store ptr %75, ptr %77, align 8
  ret void
}