; Function Attrs: nounwind uwtable
define dso_local void @ExecSetSlotDescriptor(ptr noundef %0, ptr noundef %1) local_unnamed_addr #1 {
  %3 = getelementptr inbounds nuw i8, ptr %0, i64 8
  %4 = load ptr, ptr %3, align 8
  %5 = getelementptr inbounds nuw i8, ptr %4, i64 24
  %6 = load ptr, ptr %5, align 8
  tail call void %6(ptr noundef %0) #14
  %7 = getelementptr inbounds nuw i8, ptr %0, i64 16
  %8 = load ptr, ptr %7, align 8
  %.not = icmp eq ptr %8, null
  br i1 %.not, label %14, label %9

9:                                                ; preds = %2
  %10 = getelementptr inbounds nuw i8, ptr %8, i64 12
  %11 = load i32, ptr %10, align 4
  %12 = icmp sgt i32 %11, -1
  br i1 %12, label %13, label %14

13:                                               ; preds = %9
  tail call void @DecrTupleDescRefCount(ptr noundef nonnull %8) #14
  br label %14

14:                                               ; preds = %13, %9, %2
  %15 = getelementptr inbounds nuw i8, ptr %0, i64 24
  %16 = load ptr, ptr %15, align 8
  %.not20 = icmp eq ptr %16, null
  br i1 %.not20, label %18, label %17

17:                                               ; preds = %14
  tail call void @pfree(ptr noundef nonnull %16) #14
  br label %18

18:                                               ; preds = %17, %14
  %19 = getelementptr inbounds nuw i8, ptr %0, i64 32
  %20 = load ptr, ptr %19, align 8
  %.not21 = icmp eq ptr %20, null
  br i1 %.not21, label %22, label %21

21:                                               ; preds = %18
  tail call void @pfree(ptr noundef nonnull %20) #14
  br label %22

22:                                               ; preds = %21, %18
  store ptr %1, ptr %7, align 8
  %23 = getelementptr inbounds nuw i8, ptr %1, i64 12
  %24 = load i32, ptr %23, align 4
  %25 = icmp sgt i32 %24, -1
  br i1 %25, label %26, label %27

26:                                               ; preds = %22
  tail call void @IncrTupleDescRefCount(ptr noundef nonnull %1) #14
  br label %27

27:                                               ; preds = %22, %26
  %28 = getelementptr inbounds nuw i8, ptr %0, i64 40
  %29 = load ptr, ptr %28, align 8
  %30 = load i32, ptr %1, align 8
  %31 = sext i32 %30 to i64
  %32 = shl nsw i64 %31, 3
  %33 = tail call ptr @MemoryContextAlloc(ptr noundef %29, i64 noundef %32) #14
  store ptr %33, ptr %15, align 8
  %34 = load ptr, ptr %28, align 8
  %35 = load i32, ptr %1, align 8
  %36 = sext i32 %35 to i64
  %37 = tail call ptr @MemoryContextAlloc(ptr noundef %34, i64 noundef %36) #14
  store ptr %37, ptr %19, align 8
  ret void
}